target datalayout = "e-m:e-p270:32:32-p271:32:32-p272:64:64-i64:64-i128:128-f80:128-n8:16:32:64-S128"
target triple = "x86_64-pc-linux-gnu"

%struct.AppendState = type { %struct.PlanState, ptr, i32, i32, i8, ptr, i32, ptr, ptr, i32, i8, i32, ptr, ptr, i32, ptr, i64, ptr, i8, ptr, ptr, ptr }
%struct.PlanState = type { i32, ptr, ptr, ptr, ptr, ptr, ptr, ptr, ptr, ptr, ptr, ptr, ptr, ptr, ptr, ptr, ptr, ptr, i8, ptr, ptr, ptr, ptr, ptr, i8, i8, i8, i8, i8, i8, i8, i8 }
%struct.AsyncRequest = type { ptr, ptr, i32, i8, i8, ptr }
%struct.WaitEvent = type { i32, i32, i32, ptr }

@CurrentResourceOwner = external global ptr, align 8

; Function Attrs: nounwind uwtable
define internal void @ExecAppendAsyncEventWait(ptr noundef %0) #0 {
  %2 = alloca ptr, align 8
  %3 = alloca i32, align 4
  %4 = alloca i64, align 8
  %5 = alloca [16 x %struct.WaitEvent], align 16
  %6 = alloca i32, align 4
  %7 = alloca i32, align 4
  %8 = alloca ptr, align 8
  %9 = alloca i32, align 4
  %10 = alloca ptr, align 8
  %11 = alloca ptr, align 8
  store ptr %0, ptr %2, align 8
  call void @llvm.lifetime.start.p0(i64 4, ptr %3) #6
  %12 = load ptr, ptr %2, align 8
  %13 = getelementptr inbounds nuw %struct.AppendState, ptr %12, i32 0, i32 6
  %14 = load i32, ptr %13, align 8
  %15 = add i32 %14, 1
  store i32 %15, ptr %3, align 4
  call void @llvm.lifetime.start.p0(i64 8, ptr %4) #6
  %16 = load ptr, ptr %2, align 8
  %17 = getelementptr inbounds nuw %struct.AppendState, ptr %16, i32 0, i32 10
  %18 = load i8, ptr %17, align 4, !range !4, !noundef !5
  %19 = trunc i8 %18 to i1
  %20 = select i1 %19, i32 -1, i32 0
  %21 = sext i32 %20 to i64
  store i64 %21, ptr %4, align 8
  call void @llvm.lifetime.start.p0(i64 384, ptr %5) #6
  call void @llvm.lifetime.start.p0(i64 4, ptr %6) #6
  call void @llvm.lifetime.start.p0(i64 4, ptr %7) #6
  %22 = load ptr, ptr @CurrentResourceOwner, align 8
  %23 = load i32, ptr %3, align 4
  %24 = call ptr @CreateWaitEventSet(ptr noundef %22, i32 noundef %23)
  %25 = load ptr, ptr %2, align 8
  %26 = getelementptr inbounds nuw %struct.AppendState, ptr %25, i32 0, i32 13
  store ptr %24, ptr %26, align 8
  %27 = load ptr, ptr %2, align 8
  %28 = getelementptr inbounds nuw %struct.AppendState, ptr %27, i32 0, i32 13
  %29 = load ptr, ptr %28, align 8
  %30 = call i32 @AddWaitEventToSet(ptr noundef %29, i32 noundef 32, i32 noundef -1, ptr noundef null, ptr noundef null)
  store i32 -1, ptr %7, align 4
  br label %31

31:                                               ; preds = %52, %1
  %32 = load ptr, ptr %2, align 8
  %33 = getelementptr inbounds nuw %struct.AppendState, ptr %32, i32 0, i32 5
  %34 = load ptr, ptr %33, align 8
  %35 = load i32, ptr %7, align 4
  %36 = call i32 @bms_next_member(ptr noundef %34, i32 noundef %35)
  store i32 %36, ptr %7, align 4
  %37 = icmp sge i32 %36, 0
  br i1 %37, label %38, label %53

38:                                               ; preds = %31
  call void @llvm.lifetime.start.p0(i64 8, ptr %8) #6
  %39 = load ptr, ptr %2, align 8
  %40 = getelementptr inbounds nuw %struct.AppendState, ptr %39, i32 0, i32 7
  %41 = load ptr, ptr %40, align 8
  %42 = load i32, ptr %7, align 4
  %43 = sext i32 %42 to i64
  %44 = getelementptr inbounds ptr, ptr %41, i64 %43
  %45 = load ptr, ptr %44, align 8
  store ptr %45, ptr %8, align 8
  %46 = load ptr, ptr %8, align 8
  %47 = getelementptr inbounds nuw %struct.AsyncRequest, ptr %46, i32 0, i32 3
  %48 = load i8, ptr %47, align 4, !range !4, !noundef !5
  %49 = trunc i8 %48 to i1
  br i1 %49, label %50, label %52

50:                                               ; preds = %38
  %51 = load ptr, ptr %8, align 8
  call void @ExecAsyncConfigureWait(ptr noundef %51)
  br label %52

52:                                               ; preds = %50, %38
  call void @llvm.lifetime.end.p0(i64 8, ptr %8) #6
  br label %31, !llvm.loop !16

53:                                               ; preds = %31
  %54 = load ptr, ptr %2, align 8
  %55 = getelementptr inbounds nuw %struct.AppendState, ptr %54, i32 0, i32 13
  %56 = load ptr, ptr %55, align 8
  %57 = call i32 @GetNumRegisteredWaitEvents(ptr noundef %56)
  %58 = icmp eq i32 %57, 1
  br i1 %58, label %59, label %65

59:                                               ; preds = %53
  %60 = load ptr, ptr %2, align 8
  %61 = getelementptr inbounds nuw %struct.AppendState, ptr %60, i32 0, i32 13
  %62 = load ptr, ptr %61, align 8
  call void @FreeWaitEventSet(ptr noundef %62)
  %63 = load ptr, ptr %2, align 8
  %64 = getelementptr inbounds nuw %struct.AppendState, ptr %63, i32 0, i32 13
  store ptr null, ptr %64, align 8
  store i32 1, ptr %9, align 4
  br label %117

65:                                               ; preds = %53
  %66 = load i32, ptr %3, align 4
  %67 = icmp sgt i32 %66, 16
  br i1 %67, label %68, label %69

68:                                               ; preds = %65
  store i32 16, ptr %3, align 4
  br label %69

69:                                               ; preds = %68, %65
  %70 = load ptr, ptr %2, align 8
  %71 = getelementptr inbounds nuw %struct.AppendState, ptr %70, i32 0, i32 13
  %72 = load ptr, ptr %71, align 8
  %73 = load i64, ptr %4, align 8
  %74 = getelementptr inbounds [16 x %struct.WaitEvent], ptr %5, i64 0, i64 0
  %75 = load i32, ptr %3, align 4
  %76 = call i32 @WaitEventSetWait(ptr noundef %72, i64 noundef %73, ptr noundef %74, i32 noundef %75, i32 noundef 134217728)
  store i32 %76, ptr %6, align 4
  %77 = load ptr, ptr %2, align 8
  %78 = getelementptr inbounds nuw %struct.AppendState, ptr %77, i32 0, i32 13
  %79 = load ptr, ptr %78, align 8
  call void @FreeWaitEventSet(ptr noundef %79)
  %80 = load ptr, ptr %2, align 8
  %81 = getelementptr inbounds nuw %struct.AppendState, ptr %80, i32 0, i32 13
  store ptr null, ptr %81, align 8
  %82 = load i32, ptr %6, align 4
  %83 = icmp eq i32 %82, 0
  br i1 %83, label %84, label %85

84:                                               ; preds = %69
  store i32 1, ptr %9, align 4
  br label %117

85:                                               ; preds = %69
  store i32 0, ptr %7, align 4
  br label %86

86:                                               ; preds = %113, %85
  %87 = load i32, ptr %7, align 4
  %88 = load i32, ptr %6, align 4
  %89 = icmp slt i32 %87, %88
  br i1 %89, label %90, label %116

90:                                               ; preds = %86
  call void @llvm.lifetime.start.p0(i64 8, ptr %10) #6
  %91 = load i32, ptr %7, align 4
  %92 = sext i32 %91 to i64
  %93 = getelementptr inbounds [16 x %struct.WaitEvent], ptr %5, i64 0, i64 %92
  store ptr %93, ptr %10, align 8
  %94 = load ptr, ptr %10, align 8
  %95 = getelementptr inbounds nuw %struct.WaitEvent, ptr %94, i32 0, i32 1
  %96 = load i32, ptr %95, align 4
  %97 = and i32 %96, 2
  %98 = icmp ne i32 %97, 0
  br i1 %98, label %99, label %112

99:                                               ; preds = %90
  call void @llvm.lifetime.start.p0(i64 8, ptr %11) #6
  %100 = load ptr, ptr %10, align 8
  %101 = getelementptr inbounds nuw %struct.WaitEvent, ptr %100, i32 0, i32 3
  %102 = load ptr, ptr %101, align 8
  store ptr %102, ptr %11, align 8
  %103 = load ptr, ptr %11, align 8
  %104 = getelementptr inbounds nuw %struct.AsyncRequest, ptr %103, i32 0, i32 3
  %105 = load i8, ptr %104, align 4, !range !4, !noundef !5
  %106 = trunc i8 %105 to i1
  br i1 %106, label %107, label %111

107:                                              ; preds = %99
  %108 = load ptr, ptr %11, align 8
  %109 = getelementptr inbounds nuw %struct.AsyncRequest, ptr %108, i32 0, i32 3
  store i8 0, ptr %109, align 4
  %110 = load ptr, ptr %11, align 8
  call void @ExecAsyncNotify(ptr noundef %110)
  br label %111

111:                                              ; preds = %107, %99
  call void @llvm.lifetime.end.p0(i64 8, ptr %11) #6
  br label %112

112:                                              ; preds = %111, %90
  call void @llvm.lifetime.end.p0(i64 8, ptr %10) #6
  br label %113

113:                                              ; preds = %112
  %114 = load i32, ptr %7, align 4
  %115 = add i32 %114, 1
  store i32 %115, ptr %7, align 4
  br label %86, !llvm.loop !17

116:                                              ; preds = %86
  store i32 0, ptr %9, align 4
  br label %117

117:                                              ; preds = %116, %84, %59
  call void @llvm.lifetime.end.p0(i64 4, ptr %7) #6
  call void @llvm.lifetime.end.p0(i64 4, ptr %6) #6
  call void @llvm.lifetime.end.p0(i64 384, ptr %5) #6
  call void @llvm.lifetime.end.p0(i64 8, ptr %4) #6
  call void @llvm.lifetime.end.p0(i64 4, ptr %3) #6
  %118 = load i32, ptr %9, align 4
  switch i32 %118, label %120 [
    i32 0, label %119
    i32 1, label %119
  ]

119:                                              ; preds = %117, %117
  ret void

120:                                              ; preds = %117
  unreachable
}