; Function Attrs: nounwind uwtable
define internal fastcc void @ExecAppendAsyncEventWait(ptr noundef captures(none) initializes((280, 288)) %0) unnamed_addr #0 {
  %2 = alloca [16 x %struct.WaitEvent], align 16
  %3 = getelementptr inbounds nuw i8, ptr %0, i64 232
  %4 = load i32, ptr %3, align 8
  %5 = add i32 %4, 1
  %6 = getelementptr inbounds nuw i8, ptr %0, i64 260
  %7 = load i8, ptr %6, align 4, !range !4, !noundef !5
  %8 = zext nneg i8 %7 to i64
  %9 = sub nsw i64 0, %8
  call void @llvm.lifetime.start.p0(i64 384, ptr nonnull %2) #6
  %10 = load ptr, ptr @CurrentResourceOwner, align 8
  %11 = tail call ptr @CreateWaitEventSet(ptr noundef %10, i32 noundef %5) #6
  %12 = getelementptr inbounds nuw i8, ptr %0, i64 280
  store ptr %11, ptr %12, align 8
  %13 = tail call i32 @AddWaitEventToSet(ptr noundef %11, i32 noundef 32, i32 noundef -1, ptr noundef null, ptr noundef null) #6
  %14 = getelementptr inbounds nuw i8, ptr %0, i64 224
  %15 = load ptr, ptr %14, align 8
  %16 = tail call i32 @bms_next_member(ptr noundef %15, i32 noundef -1) #6
  %17 = icmp sgt i32 %16, -1
  br i1 %17, label %.lr.ph, label %._crit_edge

.lr.ph:                                           ; preds = %1
  %18 = getelementptr inbounds nuw i8, ptr %0, i64 240
  br label %19

19:                                               ; preds = %.lr.ph, %29
  %20 = phi i32 [ %16, %.lr.ph ], [ %31, %29 ]
  %21 = load ptr, ptr %18, align 8
  %22 = zext nneg i32 %20 to i64
  %23 = getelementptr inbounds nuw ptr, ptr %21, i64 %22
  %24 = load ptr, ptr %23, align 8
  %25 = getelementptr inbounds nuw i8, ptr %24, i64 20
  %26 = load i8, ptr %25, align 4, !range !4, !noundef !5
  %27 = trunc nuw i8 %26 to i1
  br i1 %27, label %28, label %29

28:                                               ; preds = %19
  tail call void @ExecAsyncConfigureWait(ptr noundef nonnull %24) #6
  br label %29

29:                                               ; preds = %28, %19
  %30 = load ptr, ptr %14, align 8
  %31 = tail call i32 @bms_next_member(ptr noundef %30, i32 noundef %20) #6
  %32 = icmp sgt i32 %31, -1
  br i1 %32, label %19, label %._crit_edge, !llvm.loop !19

._crit_edge:                                      ; preds = %29, %1
  %33 = load ptr, ptr %12, align 8
  %34 = tail call i32 @GetNumRegisteredWaitEvents(ptr noundef %33) #6
  %35 = icmp eq i32 %34, 1
  br i1 %35, label %36, label %38

36:                                               ; preds = %._crit_edge
  %37 = load ptr, ptr %12, align 8
  tail call void @FreeWaitEventSet(ptr noundef %37) #6
  store ptr null, ptr %12, align 8
  br label %.loopexit

38:                                               ; preds = %._crit_edge
  %spec.store.select = tail call i32 @llvm.smin.i32(i32 %5, i32 16)
  %39 = load ptr, ptr %12, align 8
  %40 = call i32 @WaitEventSetWait(ptr noundef %39, i64 noundef %9, ptr noundef nonnull %2, i32 noundef %spec.store.select, i32 noundef 134217728) #6
  %41 = load ptr, ptr %12, align 8
  call void @FreeWaitEventSet(ptr noundef %41) #6
  store ptr null, ptr %12, align 8
  %42 = icmp sgt i32 %40, 0
  br i1 %42, label %.lr.ph32.preheader, label %.loopexit

.lr.ph32.preheader:                               ; preds = %38
  %wide.trip.count = zext nneg i32 %40 to i64
  br label %.lr.ph32

.lr.ph32:                                         ; preds = %.lr.ph32.preheader, %54
  %indvars.iv = phi i64 [ 0, %.lr.ph32.preheader ], [ %indvars.iv.next, %54 ]
  %43 = getelementptr inbounds nuw [16 x %struct.WaitEvent], ptr %2, i64 0, i64 %indvars.iv
  %44 = getelementptr inbounds nuw i8, ptr %43, i64 4
  %45 = load i32, ptr %44, align 4
  %46 = and i32 %45, 2
  %.not = icmp eq i32 %46, 0
  br i1 %.not, label %54, label %47

47:                                               ; preds = %.lr.ph32
  %48 = getelementptr inbounds nuw i8, ptr %43, i64 16
  %49 = load ptr, ptr %48, align 8
  %50 = getelementptr inbounds nuw i8, ptr %49, i64 20
  %51 = load i8, ptr %50, align 4, !range !4, !noundef !5
  %52 = trunc nuw i8 %51 to i1
  br i1 %52, label %53, label %54

53:                                               ; preds = %47
  store i8 0, ptr %50, align 4
  call void @ExecAsyncNotify(ptr noundef nonnull %49) #6
  br label %54

54:                                               ; preds = %47, %53, %.lr.ph32
  %indvars.iv.next = add nuw nsw i64 %indvars.iv, 1
  %exitcond.not = icmp eq i64 %indvars.iv.next, %wide.trip.count
  br i1 %exitcond.not, label %.loopexit, label %.lr.ph32, !llvm.loop !20

.loopexit:                                        ; preds = %54, %38, %36
  call void @llvm.lifetime.end.p0(i64 384, ptr nonnull %2) #6
  ret void
}